; ModuleID = '16/1430.c'
source_filename = "16/1430.c"
target datalayout = "e-m:e-p270:32:32-p271:32:32-p272:64:64-i64:64-f80:128-n8:16:32:64-S128"
target triple = "x86_64-pc-linux-gnu"

@.str = private unnamed_addr constant [3 x i8] c"%d\00", align 1
@.str.1 = private unnamed_addr constant [7 x i8] c"00001\0A\00", align 1
@.str.2 = private unnamed_addr constant [10 x i8] c"%d%d%d%d\0A\00", align 1
@.str.3 = private unnamed_addr constant [8 x i8] c"%d%d%d\0A\00", align 1
@.str.4 = private unnamed_addr constant [6 x i8] c"%d%d\0A\00", align 1
@.str.5 = private unnamed_addr constant [4 x i8] c"%d\0A\00", align 1

; Function Attrs: noinline nounwind uwtable
define dso_local i32 @main() #0 {
  %1 = alloca i32, align 4
  %2 = alloca i32, align 4
  store i32 0, i32* %1, align 4
  %3 = call i32 (i8*, ...) @__isoc99_scanf(i8* getelementptr inbounds ([3 x i8], [3 x i8]* @.str, i64 0, i64 0), i32* %2)
  %4 = load i32, i32* %2, align 4
  %5 = icmp eq i32 %4, 10000
  br i1 %5, label %6, label %8

6:                                                ; preds = %0
  %7 = call i32 (i8*, ...) @printf(i8* getelementptr inbounds ([7 x i8], [7 x i8]* @.str.1, i64 0, i64 0))
  br label %53

8:                                                ; preds = %0
  %9 = load i32, i32* %2, align 4
  %10 = icmp sgt i32 %9, 999
  br i1 %10, label %11, label %24

11:                                               ; preds = %8
  %12 = load i32, i32* %2, align 4
  %13 = srem i32 %12, 10
  %14 = load i32, i32* %2, align 4
  %15 = srem i32 %14, 100
  %16 = sdiv i32 %15, 10
  %17 = load i32, i32* %2, align 4
  %18 = sdiv i32 %17, 100
  %19 = srem i32 %18, 10
  %20 = load i32, i32* %2, align 4
  %21 = sdiv i32 %20, 1000
  %22 = srem i32 %21, 10
  %23 = call i32 (i8*, ...) @printf(i8* getelementptr inbounds ([10 x i8], [10 x i8]* @.str.2, i64 0, i64 0), i32 %13, i32 %16, i32 %19, i32 %22)
  br label %52

24:                                               ; preds = %8
  %25 = load i32, i32* %2, align 4
  %26 = icmp sgt i32 %25, 99
  br i1 %26, label %27, label %37

27:                                               ; preds = %24
  %28 = load i32, i32* %2, align 4
  %29 = srem i32 %28, 10
  %30 = load i32, i32* %2, align 4
  %31 = srem i32 %30, 100
  %32 = sdiv i32 %31, 10
  %33 = load i32, i32* %2, align 4
  %34 = sdiv i32 %33, 100
  %35 = srem i32 %34, 10
  %36 = call i32 (i8*, ...) @printf(i8* getelementptr inbounds ([8 x i8], [8 x i8]* @.str.3, i64 0, i64 0), i32 %29, i32 %32, i32 %35)
  br label %51

37:                                               ; preds = %24
  %38 = load i32, i32* %2, align 4
  %39 = icmp sgt i32 %38, 9
  br i1 %39, label %40, label %47

40:                                               ; preds = %37
  %41 = load i32, i32* %2, align 4
  %42 = srem i32 %41, 10
  %43 = load i32, i32* %2, align 4
  %44 = srem i32 %43, 100
  %45 = sdiv i32 %44, 10
  %46 = call i32 (i8*, ...) @printf(i8* getelementptr inbounds ([6 x i8], [6 x i8]* @.str.4, i64 0, i64 0), i32 %42, i32 %45)
  br label %50

47:                                               ; preds = %37
  %48 = load i32, i32* %2, align 4
  %49 = call i32 (i8*, ...) @printf(i8* getelementptr inbounds ([4 x i8], [4 x i8]* @.str.5, i64 0, i64 0), i32 %48)
  br label %50

50:                                               ; preds = %47, %40
  br label %51

51:                                               ; preds = %50, %27
  br label %52

52:                                               ; preds = %51, %11
  br label %53

53:                                               ; preds = %52, %6
  ret i32 0
}

declare dso_local i32 @__isoc99_scanf(i8*, ...) #1

declare dso_local i32 @printf(i8*, ...) #1


!llvm.module.flags = !{!0}
!llvm.ident = !{!1}

!0 = !{i32 1, !"wchar_size", i32 4}
!1 = !{!"clang version 10.0.0-4ubuntu1 "}
