; ModuleID = 'source-C-CXX/15/1430.c'
source_filename = "source-C-CXX/15/1430.c"
target datalayout = "e-m:e-p270:32:32-p271:32:32-p272:64:64-i64:64-f80:128-n8:16:32:64-S128"
target triple = "x86_64-pc-linux-gnu"

@.str = private unnamed_addr constant [3 x i8] c"%d\00", align 1
@.str.2 = private unnamed_addr constant [10 x i8] c"%d%d%d%d\0A\00", align 1
@.str.3 = private unnamed_addr constant [8 x i8] c"%d%d%d\0A\00", align 1
@.str.4 = private unnamed_addr constant [6 x i8] c"%d%d\0A\00", align 1
@.str.5 = private unnamed_addr constant [4 x i8] c"%d\0A\00", align 1
@str = private unnamed_addr constant [6 x i8] c"00001\00", align 1

; Function Attrs: nofree nounwind sspstrong uwtable
define dso_local i32 @main() local_unnamed_addr #0 {
  %1 = alloca i32, align 4
  %2 = bitcast i32* %1 to i8*
  call void @llvm.lifetime.start.p0i8(i64 4, i8* nonnull %2) #4
  %3 = call i32 (i8*, ...) @__isoc99_scanf(i8* getelementptr inbounds ([3 x i8], [3 x i8]* @.str, i64 0, i64 0), i32* nonnull %1)
  %4 = load i32, i32* %1, align 4, !tbaa !5
  %5 = icmp eq i32 %4, 10000
  br i1 %5, label %6, label %8

6:                                                ; preds = %0
  %7 = call i32 @puts(i8* nonnull dereferenceable(1) getelementptr inbounds ([6 x i8], [6 x i8]* @str, i64 0, i64 0))
  br label %48

8:                                                ; preds = %0
  %9 = icmp sgt i32 %4, 999
  br i1 %9, label %10, label %21

10:                                               ; preds = %8
  %11 = urem i32 %4, 10
  %12 = urem i32 %4, 100
  %13 = trunc i32 %12 to i8
  %14 = udiv i8 %13, 10
  %15 = zext i8 %14 to i32
  %16 = udiv i32 %4, 100
  %17 = urem i32 %16, 10
  %18 = udiv i32 %4, 1000
  %19 = urem i32 %18, 10
  %20 = call i32 (i8*, ...) @printf(i8* nonnull dereferenceable(1) getelementptr inbounds ([10 x i8], [10 x i8]* @.str.2, i64 0, i64 0), i32 %11, i32 %15, i32 %17, i32 %19)
  br label %48

21:                                               ; preds = %8
  %22 = icmp sgt i32 %4, 99
  br i1 %22, label %23, label %36

23:                                               ; preds = %21
  %24 = trunc i32 %4 to i16
  %25 = urem i16 %24, 10
  %26 = zext i16 %25 to i32
  %27 = urem i16 %24, 100
  %28 = trunc i16 %27 to i8
  %29 = udiv i8 %28, 10
  %30 = zext i8 %29 to i32
  %31 = udiv i16 %24, 100
  %32 = trunc i16 %31 to i8
  %33 = urem i8 %32, 10
  %34 = zext i8 %33 to i32
  %35 = call i32 (i8*, ...) @printf(i8* nonnull dereferenceable(1) getelementptr inbounds ([8 x i8], [8 x i8]* @.str.3, i64 0, i64 0), i32 %26, i32 %30, i32 %34)
  br label %48

36:                                               ; preds = %21
  %37 = icmp sgt i32 %4, 9
  br i1 %37, label %38, label %46

38:                                               ; preds = %36
  %39 = trunc i32 %4 to i8
  %40 = urem i8 %39, 10
  %41 = zext i8 %40 to i32
  %42 = urem i8 %39, 100
  %43 = udiv i8 %42, 10
  %44 = zext i8 %43 to i32
  %45 = call i32 (i8*, ...) @printf(i8* nonnull dereferenceable(1) getelementptr inbounds ([6 x i8], [6 x i8]* @.str.4, i64 0, i64 0), i32 %41, i32 %44)
  br label %48

46:                                               ; preds = %36
  %47 = call i32 (i8*, ...) @printf(i8* nonnull dereferenceable(1) getelementptr inbounds ([4 x i8], [4 x i8]* @.str.5, i64 0, i64 0), i32 %4)
  br label %48

48:                                               ; preds = %10, %38, %46, %23, %6
  call void @llvm.lifetime.end.p0i8(i64 4, i8* nonnull %2) #4
  ret i32 0
}

; Function Attrs: argmemonly mustprogress nofree nosync nounwind willreturn
declare void @llvm.lifetime.start.p0i8(i64 immarg, i8* nocapture) #1

; Function Attrs: nofree nounwind
declare noundef i32 @__isoc99_scanf(i8* nocapture noundef readonly, ...) local_unnamed_addr #2

; Function Attrs: nofree nounwind
declare noundef i32 @printf(i8* nocapture noundef readonly, ...) local_unnamed_addr #2

; Function Attrs: argmemonly mustprogress nofree nosync nounwind willreturn
declare void @llvm.lifetime.end.p0i8(i64 immarg, i8* nocapture) #1

; Function Attrs: nofree nounwind
declare noundef i32 @puts(i8* nocapture noundef readonly) local_unnamed_addr #3


!llvm.module.flags = !{!0, !1, !2, !3}
!llvm.ident = !{!4}

!0 = !{i32 1, !"wchar_size", i32 4}
!1 = !{i32 7, !"PIC Level", i32 2}
!2 = !{i32 7, !"PIE Level", i32 2}
!3 = !{i32 7, !"uwtable", i32 1}
!4 = !{!"clang version 13.0.0"}
!5 = !{!6, !6, i64 0}
!6 = !{!"int", !7, i64 0}
!7 = !{!"omnipotent char", !8, i64 0}
!8 = !{!"Simple C/C++ TBAA"}
